target datalayout = "e-m:e-p270:32:32-p271:32:32-p272:64:64-i64:64-i128:128-f80:128-n8:16:32:64-S128"
target triple = "x86_64-pc-linux-gnu"

%struct._rio = type { ptr, ptr, ptr, ptr, ptr, i64, i64, i64, i64, %union.anon }
%union.anon = type { %struct.anon.2 }
%struct.anon.2 = type { ptr, i64, ptr, i64, i64 }

; Function Attrs: inlinehint nounwind uwtable
define internal i64 @rioRead(ptr noundef %0, ptr noundef %1, i64 noundef %2) #6 {
  %4 = alloca i64, align 8
  %5 = alloca ptr, align 8
  %6 = alloca ptr, align 8
  %7 = alloca i64, align 8
  %8 = alloca i64, align 8
  %9 = alloca i32, align 4
  store ptr %0, ptr %5, align 8, !tbaa !53
  store ptr %1, ptr %6, align 8, !tbaa !55
  store i64 %2, ptr %7, align 8, !tbaa !56
  %10 = load ptr, ptr %5, align 8, !tbaa !53
  %11 = getelementptr inbounds nuw %struct._rio, ptr %10, i32 0, i32 6
  %12 = load i64, ptr %11, align 8, !tbaa !57
  %13 = and i64 %12, 5
  %14 = icmp ne i64 %13, 0
  br i1 %14, label %15, label %16

15:                                               ; preds = %3
  store i64 0, ptr %4, align 8
  br label %80

16:                                               ; preds = %3
  br label %17

17:                                               ; preds = %78, %16
  %18 = load i64, ptr %7, align 8, !tbaa !56
  %19 = icmp ne i64 %18, 0
  br i1 %19, label %20, label %79

20:                                               ; preds = %17
  call void @llvm.lifetime.start.p0(i64 8, ptr %8) #15
  %21 = load ptr, ptr %5, align 8, !tbaa !53
  %22 = getelementptr inbounds nuw %struct._rio, ptr %21, i32 0, i32 8
  %23 = load i64, ptr %22, align 8, !tbaa !59
  %24 = icmp ne i64 %23, 0
  br i1 %24, label %25, label %35

25:                                               ; preds = %20
  %26 = load ptr, ptr %5, align 8, !tbaa !53
  %27 = getelementptr inbounds nuw %struct._rio, ptr %26, i32 0, i32 8
  %28 = load i64, ptr %27, align 8, !tbaa !59
  %29 = load i64, ptr %7, align 8, !tbaa !56
  %30 = icmp ult i64 %28, %29
  br i1 %30, label %31, label %35

31:                                               ; preds = %25
  %32 = load ptr, ptr %5, align 8, !tbaa !53
  %33 = getelementptr inbounds nuw %struct._rio, ptr %32, i32 0, i32 8
  %34 = load i64, ptr %33, align 8, !tbaa !59
  br label %37

35:                                               ; preds = %25, %20
  %36 = load i64, ptr %7, align 8, !tbaa !56
  br label %37

37:                                               ; preds = %35, %31
  %38 = phi i64 [ %34, %31 ], [ %36, %35 ]
  store i64 %38, ptr %8, align 8, !tbaa !56
  %39 = load ptr, ptr %5, align 8, !tbaa !53
  %40 = getelementptr inbounds nuw %struct._rio, ptr %39, i32 0, i32 0
  %41 = load ptr, ptr %40, align 8, !tbaa !66
  %42 = load ptr, ptr %5, align 8, !tbaa !53
  %43 = load ptr, ptr %6, align 8, !tbaa !55
  %44 = load i64, ptr %8, align 8, !tbaa !56
  %45 = call i64 %41(ptr noundef %42, ptr noundef %43, i64 noundef %44)
  %46 = icmp eq i64 %45, 0
  br i1 %46, label %47, label %52

47:                                               ; preds = %37
  %48 = load ptr, ptr %5, align 8, !tbaa !53
  %49 = getelementptr inbounds nuw %struct._rio, ptr %48, i32 0, i32 6
  %50 = load i64, ptr %49, align 8, !tbaa !57
  %51 = or i64 %50, 1
  store i64 %51, ptr %49, align 8, !tbaa !57
  store i64 0, ptr %4, align 8
  store i32 1, ptr %9, align 4
  br label %76

52:                                               ; preds = %37
  %53 = load ptr, ptr %5, align 8, !tbaa !53
  %54 = getelementptr inbounds nuw %struct._rio, ptr %53, i32 0, i32 4
  %55 = load ptr, ptr %54, align 8, !tbaa !60
  %56 = icmp ne ptr %55, null
  br i1 %56, label %57, label %64

57:                                               ; preds = %52
  %58 = load ptr, ptr %5, align 8, !tbaa !53
  %59 = getelementptr inbounds nuw %struct._rio, ptr %58, i32 0, i32 4
  %60 = load ptr, ptr %59, align 8, !tbaa !60
  %61 = load ptr, ptr %5, align 8, !tbaa !53
  %62 = load ptr, ptr %6, align 8, !tbaa !55
  %63 = load i64, ptr %8, align 8, !tbaa !56
  call void %60(ptr noundef %61, ptr noundef %62, i64 noundef %63)
  br label %64

64:                                               ; preds = %57, %52
  %65 = load ptr, ptr %6, align 8, !tbaa !55
  %66 = load i64, ptr %8, align 8, !tbaa !56
  %67 = getelementptr inbounds nuw i8, ptr %65, i64 %66
  store ptr %67, ptr %6, align 8, !tbaa !55
  %68 = load i64, ptr %8, align 8, !tbaa !56
  %69 = load i64, ptr %7, align 8, !tbaa !56
  %70 = sub i64 %69, %68
  store i64 %70, ptr %7, align 8, !tbaa !56
  %71 = load i64, ptr %8, align 8, !tbaa !56
  %72 = load ptr, ptr %5, align 8, !tbaa !53
  %73 = getelementptr inbounds nuw %struct._rio, ptr %72, i32 0, i32 7
  %74 = load i64, ptr %73, align 8, !tbaa !62
  %75 = add i64 %74, %71
  store i64 %75, ptr %73, align 8, !tbaa !62
  store i32 0, ptr %9, align 4
  br label %76

76:                                               ; preds = %64, %47
  call void @llvm.lifetime.end.p0(i64 8, ptr %8) #15
  %77 = load i32, ptr %9, align 4
  switch i32 %77, label %82 [
    i32 0, label %78
    i32 1, label %80
  ]

78:                                               ; preds = %76
  br label %17, !llvm.loop !67

79:                                               ; preds = %17
  store i64 1, ptr %4, align 8
  br label %80

80:                                               ; preds = %79, %76, %15
  %81 = load i64, ptr %4, align 8
  ret i64 %81

82:                                               ; preds = %76
  unreachable
}

; Function Attrs: nounwind uwtable
define dso_local i64 @rdbLoadTime(ptr noundef %0) #0 {
  %2 = alloca i64, align 8
  %3 = alloca ptr, align 8
  %4 = alloca i32, align 4
  %5 = alloca i32, align 4
  store ptr %0, ptr %3, align 8, !tbaa !53
  call void @llvm.lifetime.start.p0(i64 4, ptr %4) #15
  %6 = load ptr, ptr %3, align 8, !tbaa !53
  %7 = call i64 @rioRead(ptr noundef %6, ptr noundef %4, i64 noundef 4)
  %8 = icmp eq i64 %7, 0
  br i1 %8, label %9, label %10

9:                                                ; preds = %1
  store i64 -1, ptr %2, align 8
  store i32 1, ptr %5, align 4
  br label %13

10:                                               ; preds = %1
  %11 = load i32, ptr %4, align 4, !tbaa !5
  %12 = sext i32 %11 to i64
  store i64 %12, ptr %2, align 8
  store i32 1, ptr %5, align 4
  br label %13

13:                                               ; preds = %10, %9
  call void @llvm.lifetime.end.p0(i64 4, ptr %4) #15
  %14 = load i64, ptr %2, align 8
  ret i64 %14
}